target datalayout = "e-m:e-p270:32:32-p271:32:32-p272:64:64-i64:64-i128:128-f80:128-n8:16:32:64-S128"
target triple = "x86_64-pc-linux-gnu"

%struct.ZSTD_customMem = type { ptr, ptr, ptr }
%struct.ZSTD_frameParameters = type { i32, i32, i32 }
%struct.ZSTD_compressionParameters = type { i32, i32, i32, i32, i32, i32, i32 }
%struct.ZSTD_CCtx_params_s = type { i32, %struct.ZSTD_compressionParameters, %struct.ZSTD_frameParameters, i32, i32, i64, i32, i32, i32, i32, i64, i32, i32, %struct.ldmParams_t, i32, i32, i32, i32, i32, i32, i32, i32, %struct.ZSTD_customMem, i32, i32, i32, i64, i32 }
%struct.ldmParams_t = type { i32, i32, i32, i32, i32, i32 }

; Function Attrs: nounwind uwtable
define dso_local i64 @ZSTD_CCtxParams_init(ptr noundef %0, i32 noundef %1) #0 {
  %3 = alloca i64, align 8
  %4 = alloca ptr, align 8
  %5 = alloca i32, align 4
  store ptr %0, ptr %4, align 8
  store i32 %1, ptr %5, align 4
  %6 = load ptr, ptr %4, align 8
  %7 = icmp ne ptr %6, null
  br i1 %7, label %9, label %8

8:                                                ; preds = %2
  store i64 -1, ptr %3, align 8
  br label %17

9:                                                ; preds = %2
  %10 = load ptr, ptr %4, align 8
  call void @llvm.memset.p0.i64(ptr align 8 %10, i8 0, i64 208, i1 false)
  %11 = load i32, ptr %5, align 4
  %12 = load ptr, ptr %4, align 8
  %13 = getelementptr inbounds %struct.ZSTD_CCtx_params_s, ptr %12, i32 0, i32 3
  store i32 %11, ptr %13, align 4
  %14 = load ptr, ptr %4, align 8
  %15 = getelementptr inbounds %struct.ZSTD_CCtx_params_s, ptr %14, i32 0, i32 2
  %16 = getelementptr inbounds %struct.ZSTD_frameParameters, ptr %15, i32 0, i32 0
  store i32 1, ptr %16, align 8
  store i64 0, ptr %3, align 8
  br label %17

17:                                               ; preds = %9, %8
  %18 = load i64, ptr %3, align 8
  ret i64 %18
}

; Function Attrs: nounwind uwtable
define dso_local i64 @ZSTD_CCtxParams_reset(ptr noundef %0) #0 {
  %2 = alloca ptr, align 8
  store ptr %0, ptr %2, align 8
  %3 = load ptr, ptr %2, align 8
  %4 = call i64 @ZSTD_CCtxParams_init(ptr noundef %3, i32 noundef 3)
  ret i64 %4
}